; Function Attrs: mustprogress nounwind uwtable
define internal void @_ZN12_GLOBAL__N_112TypeArgumentD0Ev(ptr noundef nonnull align 8 dereferenceable(128) %0) unnamed_addr #0 align 2 {
  store ptr getelementptr inbounds inrange(-16, 200) (i8, ptr @_ZTVN12_GLOBAL__N_114SimpleArgumentE, i64 16), ptr %0, align 8
  %2 = getelementptr inbounds nuw i8, ptr %0, i64 96
  tail call void @_ZNSt7__cxx1112basic_stringIcSt11char_traitsIcESaIcEED1Ev(ptr noundef nonnull align 8 dereferenceable(32) %2) #22
  store ptr getelementptr inbounds inrange(-16, 200) (i8, ptr @_ZTVN12_GLOBAL__N_18ArgumentE, i64 16), ptr %0, align 8
  %3 = getelementptr inbounds nuw i8, ptr %0, i64 40
  tail call void @_ZNSt7__cxx1112basic_stringIcSt11char_traitsIcESaIcEED1Ev(ptr noundef nonnull align 8 dereferenceable(32) %3) #22
  %4 = getelementptr inbounds nuw i8, ptr %0, i64 8
  tail call void @_ZNSt7__cxx1112basic_stringIcSt11char_traitsIcESaIcEED1Ev(ptr noundef nonnull align 8 dereferenceable(32) %4) #22
  tail call void @_ZdlPvm(ptr noundef nonnull %0, i64 noundef 128) #26
  ret void
}